target datalayout = "e-m:e-p270:32:32-p271:32:32-p272:64:64-i64:64-i128:128-f80:128-n8:16:32:64-S128"
target triple = "x86_64-pc-linux-gnu"

%struct.H5EA_hdr_t = type { %struct.H5C_cache_entry_t, %struct.H5EA_create_t, i64, %struct.H5EA_stat_t, %struct.anon.1, i64, i64, i64, ptr, i64, i8, i64, i64, i8, i64, ptr, i64, ptr, i8, ptr, ptr }
%struct.H5C_cache_entry_t = type { ptr, i64, i64, ptr, i8, ptr, i8, i8, i8, i8, i32, i8, i8, i8, i8, i8, i32, ptr, i32, i32, i32, i32, i32, i8, i8, ptr, ptr, ptr, ptr, ptr, ptr, i8, i32, i8, i64, ptr, i64, i64, i32, i8, i32, i32, i8, ptr, ptr, ptr }
%struct.H5EA_create_t = type { ptr, i8, i8, i8, i8, i8, i8 }
%struct.H5EA_stat_t = type { %struct.anon, %struct.anon.0 }
%struct.anon = type { i64, i64, i64 }
%struct.anon.0 = type { i64, i64, i64, i64, i64, i64 }
%struct.anon.1 = type { i64, ptr }

; Function Attrs: nounwind willreturn memory(read) uwtable
define internal i32 @H5VM_log2_of2(i32 noundef %0) #2 {
  %2 = alloca i32, align 4
  store i32 %0, ptr %2, align 4
  %3 = load i32, ptr %2, align 4
  %4 = mul i32 %3, 125613361
  %5 = lshr i32 %4, 27
  %6 = zext i32 %5 to i64
  %7 = getelementptr inbounds [32 x i32], ptr @MultiplyDeBruijnBitPosition, i64 0, i64 %6
  %8 = load i32, ptr %7, align 4
  ret i32 %8
}

; Function Attrs: nounwind uwtable
define i32 @H5EA__hdr_free_elmts(ptr noundef %0, i64 noundef %1, ptr noundef %2) #0 {
  %4 = alloca ptr, align 8
  %5 = alloca i64, align 8
  %6 = alloca ptr, align 8
  %7 = alloca i32, align 4
  store ptr %0, ptr %4, align 8
  store i64 %1, ptr %5, align 8
  store ptr %2, ptr %6, align 8
  %8 = load i64, ptr %5, align 8
  %9 = trunc i64 %8 to i32
  %10 = call i32 @H5VM_log2_of2(i32 noundef %9) #5
  %11 = load ptr, ptr %4, align 8
  %12 = getelementptr inbounds %struct.H5EA_hdr_t, ptr %11, i32 0, i32 1
  %13 = getelementptr inbounds %struct.H5EA_create_t, ptr %12, i32 0, i32 4
  %14 = load i8, ptr %13, align 1
  %15 = zext i8 %14 to i32
  %16 = call i32 @H5VM_log2_of2(i32 noundef %15) #5
  %17 = sub i32 %10, %16
  store i32 %17, ptr %7, align 4
  %18 = load ptr, ptr %4, align 8
  %19 = getelementptr inbounds %struct.H5EA_hdr_t, ptr %18, i32 0, i32 4
  %20 = getelementptr inbounds %struct.anon.1, ptr %19, i32 0, i32 1
  %21 = load ptr, ptr %20, align 8
  %22 = load i32, ptr %7, align 4
  %23 = zext i32 %22 to i64
  %24 = getelementptr inbounds ptr, ptr %21, i64 %23
  %25 = load ptr, ptr %24, align 8
  %26 = load ptr, ptr %6, align 8
  %27 = call ptr @H5FL_fac_free(ptr noundef %25, ptr noundef %26)
  store ptr %27, ptr %6, align 8
  ret i32 0
}