; Function Attrs: nounwind uwtable
define noundef i32 @H5EA__hdr_free_elmts(ptr nocapture noundef readonly %0, i64 noundef %1, ptr noundef %2) local_unnamed_addr #0 {
  %4 = mul i64 %1, 125613361
  %5 = lshr i64 %4, 27
  %6 = and i64 %5, 31
  %7 = getelementptr inbounds [32 x i32], ptr @MultiplyDeBruijnBitPosition, i64 0, i64 %6
  %8 = load i32, ptr %7, align 4
  %9 = getelementptr inbounds i8, ptr %0, i64 259
  %10 = load i8, ptr %9, align 1
  %11 = zext i8 %10 to i64
  %12 = mul nuw nsw i64 %11, 125613361
  %13 = lshr i64 %12, 27
  %14 = and i64 %13, 31
  %15 = getelementptr inbounds [32 x i32], ptr @MultiplyDeBruijnBitPosition, i64 0, i64 %14
  %16 = load i32, ptr %15, align 4
  %17 = sub i32 %8, %16
  %18 = getelementptr inbounds i8, ptr %0, i64 352
  %19 = load ptr, ptr %18, align 8
  %20 = zext i32 %17 to i64
  %21 = getelementptr inbounds ptr, ptr %19, i64 %20
  %22 = load ptr, ptr %21, align 8
  %23 = tail call ptr @H5FL_fac_free(ptr noundef %22, ptr noundef %2) #6
  ret i32 0
}